target datalayout = "e-m:e-p270:32:32-p271:32:32-p272:64:64-i64:64-i128:128-f80:128-n8:16:32:64-S128"
target triple = "x86_64-pc-linux-gnu"

; Function Attrs: nounwind uwtable
define zeroext i16 @ttUSHORT(ptr noundef %0) #0 {
  %2 = alloca ptr, align 8
  store ptr %0, ptr %2, align 8, !tbaa !25
  %3 = load ptr, ptr %2, align 8, !tbaa !25
  %4 = getelementptr inbounds i8, ptr %3, i64 0
  %5 = load i8, ptr %4, align 1, !tbaa !13
  %6 = zext i8 %5 to i32
  %7 = mul nsw i32 %6, 256
  %8 = load ptr, ptr %2, align 8, !tbaa !25
  %9 = getelementptr inbounds i8, ptr %8, i64 1
  %10 = load i8, ptr %9, align 1, !tbaa !13
  %11 = zext i8 %10 to i32
  %12 = add nsw i32 %7, %11
  %13 = trunc i32 %12 to i16
  ret i16 %13
}

; Function Attrs: nounwind uwtable
define i32 @stbtt__GetGlyphClass(ptr noundef %0, i32 noundef %1) #0 {
  %3 = alloca i32, align 4
  %4 = alloca ptr, align 8
  %5 = alloca i32, align 4
  %6 = alloca i16, align 2
  %7 = alloca i16, align 2
  %8 = alloca i16, align 2
  %9 = alloca ptr, align 8
  %10 = alloca i32, align 4
  %11 = alloca i16, align 2
  %12 = alloca ptr, align 8
  %13 = alloca i32, align 4
  %14 = alloca i32, align 4
  %15 = alloca i32, align 4
  %16 = alloca i32, align 4
  %17 = alloca i32, align 4
  %18 = alloca i32, align 4
  %19 = alloca ptr, align 8
  store ptr %0, ptr %4, align 8, !tbaa !25
  store i32 %1, ptr %5, align 4, !tbaa !14
  call void @llvm.lifetime.start.p0(i64 2, ptr %6) #8
  %20 = load ptr, ptr %4, align 8, !tbaa !25
  %21 = call zeroext i16 @ttUSHORT(ptr noundef %20)
  store i16 %21, ptr %6, align 2, !tbaa !45
  %22 = load i16, ptr %6, align 2, !tbaa !45
  %23 = zext i16 %22 to i32
  switch i32 %23, label %116 [
    i32 1, label %24
    i32 2, label %59
  ]

24:                                               ; preds = %2
  call void @llvm.lifetime.start.p0(i64 2, ptr %7) #8
  %25 = load ptr, ptr %4, align 8, !tbaa !25
  %26 = getelementptr inbounds i8, ptr %25, i64 2
  %27 = call zeroext i16 @ttUSHORT(ptr noundef %26)
  store i16 %27, ptr %7, align 2, !tbaa !45
  call void @llvm.lifetime.start.p0(i64 2, ptr %8) #8
  %28 = load ptr, ptr %4, align 8, !tbaa !25
  %29 = getelementptr inbounds i8, ptr %28, i64 4
  %30 = call zeroext i16 @ttUSHORT(ptr noundef %29)
  store i16 %30, ptr %8, align 2, !tbaa !45
  call void @llvm.lifetime.start.p0(i64 8, ptr %9) #8
  %31 = load ptr, ptr %4, align 8, !tbaa !25
  %32 = getelementptr inbounds i8, ptr %31, i64 6
  store ptr %32, ptr %9, align 8, !tbaa !25
  %33 = load i32, ptr %5, align 4, !tbaa !14
  %34 = load i16, ptr %7, align 2, !tbaa !45
  %35 = zext i16 %34 to i32
  %36 = icmp sge i32 %33, %35
  br i1 %36, label %37, label %56

37:                                               ; preds = %24
  %38 = load i32, ptr %5, align 4, !tbaa !14
  %39 = load i16, ptr %7, align 2, !tbaa !45
  %40 = zext i16 %39 to i32
  %41 = load i16, ptr %8, align 2, !tbaa !45
  %42 = zext i16 %41 to i32
  %43 = add nsw i32 %40, %42
  %44 = icmp slt i32 %38, %43
  br i1 %44, label %45, label %56

45:                                               ; preds = %37
  %46 = load ptr, ptr %9, align 8, !tbaa !25
  %47 = load i32, ptr %5, align 4, !tbaa !14
  %48 = load i16, ptr %7, align 2, !tbaa !45
  %49 = zext i16 %48 to i32
  %50 = sub nsw i32 %47, %49
  %51 = mul nsw i32 2, %50
  %52 = sext i32 %51 to i64
  %53 = getelementptr inbounds i8, ptr %46, i64 %52
  %54 = call zeroext i16 @ttUSHORT(ptr noundef %53)
  %55 = zext i16 %54 to i32
  store i32 %55, ptr %3, align 4
  store i32 1, ptr %10, align 4
  br label %57

56:                                               ; preds = %37, %24
  store i32 2, ptr %10, align 4
  br label %57

57:                                               ; preds = %56, %45
  call void @llvm.lifetime.end.p0(i64 8, ptr %9) #8
  call void @llvm.lifetime.end.p0(i64 2, ptr %8) #8
  call void @llvm.lifetime.end.p0(i64 2, ptr %7) #8
  %58 = load i32, ptr %10, align 4
  switch i32 %58, label %118 [
    i32 2, label %117
  ]

59:                                               ; preds = %2
  call void @llvm.lifetime.start.p0(i64 2, ptr %11) #8
  %60 = load ptr, ptr %4, align 8, !tbaa !25
  %61 = getelementptr inbounds i8, ptr %60, i64 2
  %62 = call zeroext i16 @ttUSHORT(ptr noundef %61)
  store i16 %62, ptr %11, align 2, !tbaa !45
  call void @llvm.lifetime.start.p0(i64 8, ptr %12) #8
  %63 = load ptr, ptr %4, align 8, !tbaa !25
  %64 = getelementptr inbounds i8, ptr %63, i64 4
  store ptr %64, ptr %12, align 8, !tbaa !25
  call void @llvm.lifetime.start.p0(i64 4, ptr %13) #8
  store i32 0, ptr %13, align 4, !tbaa !14
  call void @llvm.lifetime.start.p0(i64 4, ptr %14) #8
  %65 = load i16, ptr %11, align 2, !tbaa !45
  %66 = zext i16 %65 to i32
  %67 = sub nsw i32 %66, 1
  store i32 %67, ptr %14, align 4, !tbaa !14
  call void @llvm.lifetime.start.p0(i64 4, ptr %15) #8
  call void @llvm.lifetime.start.p0(i64 4, ptr %16) #8
  call void @llvm.lifetime.start.p0(i64 4, ptr %17) #8
  call void @llvm.lifetime.start.p0(i64 4, ptr %18) #8
  %68 = load i32, ptr %5, align 4, !tbaa !14
  store i32 %68, ptr %18, align 4, !tbaa !14
  br label %69

69:                                               ; preds = %112, %59
  %70 = load i32, ptr %13, align 4, !tbaa !14
  %71 = load i32, ptr %14, align 4, !tbaa !14
  %72 = icmp sle i32 %70, %71
  br i1 %72, label %73, label %113

73:                                               ; preds = %69
  call void @llvm.lifetime.start.p0(i64 8, ptr %19) #8
  %74 = load i32, ptr %13, align 4, !tbaa !14
  %75 = load i32, ptr %14, align 4, !tbaa !14
  %76 = add nsw i32 %74, %75
  %77 = ashr i32 %76, 1
  store i32 %77, ptr %15, align 4, !tbaa !14
  %78 = load ptr, ptr %12, align 8, !tbaa !25
  %79 = load i32, ptr %15, align 4, !tbaa !14
  %80 = mul nsw i32 6, %79
  %81 = sext i32 %80 to i64
  %82 = getelementptr inbounds i8, ptr %78, i64 %81
  store ptr %82, ptr %19, align 8, !tbaa !25
  %83 = load ptr, ptr %19, align 8, !tbaa !25
  %84 = call zeroext i16 @ttUSHORT(ptr noundef %83)
  %85 = zext i16 %84 to i32
  store i32 %85, ptr %16, align 4, !tbaa !14
  %86 = load ptr, ptr %19, align 8, !tbaa !25
  %87 = getelementptr inbounds i8, ptr %86, i64 2
  %88 = call zeroext i16 @ttUSHORT(ptr noundef %87)
  %89 = zext i16 %88 to i32
  store i32 %89, ptr %17, align 4, !tbaa !14
  %90 = load i32, ptr %18, align 4, !tbaa !14
  %91 = load i32, ptr %16, align 4, !tbaa !14
  %92 = icmp slt i32 %90, %91
  br i1 %92, label %93, label %96

93:                                               ; preds = %73
  %94 = load i32, ptr %15, align 4, !tbaa !14
  %95 = sub nsw i32 %94, 1
  store i32 %95, ptr %14, align 4, !tbaa !14
  br label %109

96:                                               ; preds = %73
  %97 = load i32, ptr %18, align 4, !tbaa !14
  %98 = load i32, ptr %17, align 4, !tbaa !14
  %99 = icmp sgt i32 %97, %98
  br i1 %99, label %100, label %103

100:                                              ; preds = %96
  %101 = load i32, ptr %15, align 4, !tbaa !14
  %102 = add nsw i32 %101, 1
  store i32 %102, ptr %13, align 4, !tbaa !14
  br label %108

103:                                              ; preds = %96
  %104 = load ptr, ptr %19, align 8, !tbaa !25
  %105 = getelementptr inbounds i8, ptr %104, i64 4
  %106 = call zeroext i16 @ttUSHORT(ptr noundef %105)
  %107 = zext i16 %106 to i32
  store i32 %107, ptr %3, align 4
  store i32 1, ptr %10, align 4
  br label %110

108:                                              ; preds = %100
  br label %109

109:                                              ; preds = %108, %93
  store i32 0, ptr %10, align 4
  br label %110

110:                                              ; preds = %109, %103
  call void @llvm.lifetime.end.p0(i64 8, ptr %19) #8
  %111 = load i32, ptr %10, align 4
  switch i32 %111, label %114 [
    i32 0, label %112
  ]

112:                                              ; preds = %110
  br label %69, !llvm.loop !97

113:                                              ; preds = %69
  store i32 2, ptr %10, align 4
  br label %114

114:                                              ; preds = %113, %110
  call void @llvm.lifetime.end.p0(i64 4, ptr %18) #8
  call void @llvm.lifetime.end.p0(i64 4, ptr %17) #8
  call void @llvm.lifetime.end.p0(i64 4, ptr %16) #8
  call void @llvm.lifetime.end.p0(i64 4, ptr %15) #8
  call void @llvm.lifetime.end.p0(i64 4, ptr %14) #8
  call void @llvm.lifetime.end.p0(i64 4, ptr %13) #8
  call void @llvm.lifetime.end.p0(i64 8, ptr %12) #8
  call void @llvm.lifetime.end.p0(i64 2, ptr %11) #8
  %115 = load i32, ptr %10, align 4
  switch i32 %115, label %118 [
    i32 2, label %117
  ]

116:                                              ; preds = %2
  store i32 -1, ptr %3, align 4
  store i32 1, ptr %10, align 4
  br label %118

117:                                              ; preds = %114, %57
  store i32 0, ptr %3, align 4
  store i32 1, ptr %10, align 4
  br label %118

118:                                              ; preds = %117, %116, %114, %57
  call void @llvm.lifetime.end.p0(i64 2, ptr %6) #8
  %119 = load i32, ptr %3, align 4
  ret i32 %119
}