; Function Attrs: nofree norecurse nosync nounwind memory(argmem: read) uwtable
define range(i32 -1, 65536) i32 @stbtt__GetGlyphClass(ptr noundef readonly captures(none) %0, i32 noundef %1) local_unnamed_addr #7 {
  %3 = load i8, ptr %0, align 1, !tbaa !12
  %4 = zext i8 %3 to i16
  %5 = shl nuw i16 %4, 8
  %6 = getelementptr inbounds nuw i8, ptr %0, i64 1
  %7 = load i8, ptr %6, align 1, !tbaa !12
  %8 = zext i8 %7 to i16
  %9 = or disjoint i16 %5, %8
  switch i16 %9, label %.thread [
    i16 1, label %10
    i16 2, label %43
  ]

10:                                               ; preds = %2
  %11 = getelementptr inbounds nuw i8, ptr %0, i64 2
  %12 = load i8, ptr %11, align 1, !tbaa !12
  %13 = zext i8 %12 to i32
  %14 = shl nuw nsw i32 %13, 8
  %15 = getelementptr inbounds nuw i8, ptr %0, i64 3
  %16 = load i8, ptr %15, align 1, !tbaa !12
  %17 = zext i8 %16 to i32
  %18 = or disjoint i32 %14, %17
  %19 = getelementptr inbounds nuw i8, ptr %0, i64 6
  %.not49 = icmp slt i32 %1, %18
  br i1 %.not49, label %.thread, label %20

20:                                               ; preds = %10
  %21 = getelementptr inbounds nuw i8, ptr %0, i64 4
  %22 = load i8, ptr %21, align 1, !tbaa !12
  %23 = zext i8 %22 to i32
  %24 = shl nuw nsw i32 %23, 8
  %25 = getelementptr inbounds nuw i8, ptr %0, i64 5
  %26 = load i8, ptr %25, align 1, !tbaa !12
  %27 = zext i8 %26 to i32
  %28 = or disjoint i32 %24, %27
  %29 = add nuw nsw i32 %28, %18
  %30 = icmp samesign ult i32 %1, %29
  br i1 %30, label %31, label %.thread

31:                                               ; preds = %20
  %32 = sub nsw i32 %1, %18
  %33 = shl nsw i32 %32, 1
  %34 = sext i32 %33 to i64
  %35 = getelementptr inbounds i8, ptr %19, i64 %34
  %36 = load i8, ptr %35, align 1, !tbaa !12
  %37 = zext i8 %36 to i32
  %38 = shl nuw nsw i32 %37, 8
  %39 = getelementptr inbounds nuw i8, ptr %35, i64 1
  %40 = load i8, ptr %39, align 1, !tbaa !12
  %41 = zext i8 %40 to i32
  %42 = or disjoint i32 %38, %41
  br label %.thread

43:                                               ; preds = %2
  %44 = getelementptr inbounds nuw i8, ptr %0, i64 2
  %45 = load i8, ptr %44, align 1, !tbaa !12
  %46 = zext i8 %45 to i32
  %47 = shl nuw nsw i32 %46, 8
  %48 = getelementptr inbounds nuw i8, ptr %0, i64 3
  %49 = load i8, ptr %48, align 1, !tbaa !12
  %50 = zext i8 %49 to i32
  %51 = or disjoint i32 %47, %50
  %52 = getelementptr inbounds nuw i8, ptr %0, i64 4
  %.not59 = icmp eq i32 %51, 0
  br i1 %.not59, label %.thread, label %.lr.ph.preheader

.lr.ph.preheader:                                 ; preds = %43
  %53 = add nsw i32 %51, -1
  br label %.lr.ph

.lr.ph:                                           ; preds = %.lr.ph.preheader, %81
  %.04061 = phi i32 [ %.242, %81 ], [ 0, %.lr.ph.preheader ]
  %.04360 = phi i32 [ %.245, %81 ], [ %53, %.lr.ph.preheader ]
  %54 = add nsw i32 %.04061, %.04360
  %55 = ashr i32 %54, 1
  %56 = mul nsw i32 %55, 6
  %57 = sext i32 %56 to i64
  %58 = getelementptr inbounds i8, ptr %52, i64 %57
  %59 = load i8, ptr %58, align 1, !tbaa !12
  %60 = zext i8 %59 to i32
  %61 = shl nuw nsw i32 %60, 8
  %62 = getelementptr inbounds nuw i8, ptr %58, i64 1
  %63 = load i8, ptr %62, align 1, !tbaa !12
  %64 = zext i8 %63 to i32
  %65 = or disjoint i32 %61, %64
  %66 = icmp slt i32 %1, %65
  br i1 %66, label %67, label %69

67:                                               ; preds = %.lr.ph
  %68 = add nsw i32 %55, -1
  br label %81

69:                                               ; preds = %.lr.ph
  %70 = getelementptr inbounds nuw i8, ptr %58, i64 2
  %71 = load i8, ptr %70, align 1, !tbaa !12
  %72 = zext i8 %71 to i32
  %73 = shl nuw nsw i32 %72, 8
  %74 = getelementptr inbounds nuw i8, ptr %58, i64 3
  %75 = load i8, ptr %74, align 1, !tbaa !12
  %76 = zext i8 %75 to i32
  %77 = or disjoint i32 %73, %76
  %78 = icmp samesign ugt i32 %1, %77
  br i1 %78, label %79, label %82

79:                                               ; preds = %69
  %80 = add nsw i32 %55, 1
  br label %81

81:                                               ; preds = %67, %79
  %.245 = phi i32 [ %68, %67 ], [ %.04360, %79 ]
  %.242 = phi i32 [ %.04061, %67 ], [ %80, %79 ]
  %.not = icmp sgt i32 %.242, %.245
  br i1 %.not, label %.thread, label %.lr.ph, !llvm.loop !87

82:                                               ; preds = %69
  %83 = getelementptr inbounds nuw i8, ptr %58, i64 4
  %84 = load i8, ptr %83, align 1, !tbaa !12
  %85 = zext i8 %84 to i32
  %86 = shl nuw nsw i32 %85, 8
  %87 = getelementptr inbounds nuw i8, ptr %58, i64 5
  %88 = load i8, ptr %87, align 1, !tbaa !12
  %89 = zext i8 %88 to i32
  %90 = or disjoint i32 %86, %89
  br label %.thread

.thread:                                          ; preds = %81, %43, %10, %20, %82, %31, %2
  %.1 = phi i32 [ %90, %82 ], [ %42, %31 ], [ -1, %2 ], [ 0, %20 ], [ 0, %10 ], [ 0, %43 ], [ 0, %81 ]
  ret i32 %.1
}